target datalayout = "e-m:e-p270:32:32-p271:32:32-p272:64:64-i64:64-i128:128-f80:128-n8:16:32:64-S128"
target triple = "x86_64-pc-linux-gnu"

%struct.X509_VERIFY_PARAM_st = type { ptr, i64, i64, i64, i32, i32, i32, ptr, ptr }

; Function Attrs: nounwind uwtable
define hidden i32 @X509_VERIFY_PARAM_set1(ptr noundef %0, ptr noundef %1) #0 {
  %3 = alloca ptr, align 8
  %4 = alloca ptr, align 8
  %5 = alloca i64, align 8
  %6 = alloca i32, align 4
  store ptr %0, ptr %3, align 8, !tbaa !6
  store ptr %1, ptr %4, align 8, !tbaa !6
  call void @llvm.lifetime.start.p0(i64 8, ptr %5) #7
  %7 = load ptr, ptr %3, align 8, !tbaa !6
  %8 = getelementptr inbounds nuw %struct.X509_VERIFY_PARAM_st, ptr %7, i32 0, i32 2
  %9 = load i64, ptr %8, align 8, !tbaa !22
  store i64 %9, ptr %5, align 8, !tbaa !34
  call void @llvm.lifetime.start.p0(i64 4, ptr %6) #7
  %10 = load ptr, ptr %3, align 8, !tbaa !6
  %11 = getelementptr inbounds nuw %struct.X509_VERIFY_PARAM_st, ptr %10, i32 0, i32 2
  %12 = load i64, ptr %11, align 8, !tbaa !22
  %13 = or i64 %12, 1
  store i64 %13, ptr %11, align 8, !tbaa !22
  %14 = load ptr, ptr %3, align 8, !tbaa !6
  %15 = load ptr, ptr %4, align 8, !tbaa !6
  %16 = call i32 @X509_VERIFY_PARAM_inherit(ptr noundef %14, ptr noundef %15)
  store i32 %16, ptr %6, align 4, !tbaa !35
  %17 = load i64, ptr %5, align 8, !tbaa !34
  %18 = load ptr, ptr %3, align 8, !tbaa !6
  %19 = getelementptr inbounds nuw %struct.X509_VERIFY_PARAM_st, ptr %18, i32 0, i32 2
  store i64 %17, ptr %19, align 8, !tbaa !22
  %20 = load i32, ptr %6, align 4, !tbaa !35
  call void @llvm.lifetime.end.p0(i64 4, ptr %6) #7
  call void @llvm.lifetime.end.p0(i64 8, ptr %5) #7
  ret i32 %20
}