; Function Attrs: nounwind uwtable
define hidden range(i32 0, 2) i32 @X509_VERIFY_PARAM_set1(ptr noundef captures(address_is_null) %0, ptr noundef captures(address_is_null) %1) local_unnamed_addr #0 {
  %3 = getelementptr inbounds nuw i8, ptr %0, i64 16
  %4 = load i64, ptr %3, align 8, !tbaa !25
  %5 = or i64 %4, 1
  store i64 %5, ptr %3, align 8, !tbaa !25
  %6 = tail call i32 @X509_VERIFY_PARAM_inherit(ptr noundef %0, ptr noundef %1)
  store i64 %4, ptr %3, align 8, !tbaa !25
  ret i32 %6
}